target datalayout = "e-m:e-p270:32:32-p271:32:32-p272:64:64-i64:64-i128:128-f80:128-n8:16:32:64-S128"
target triple = "x86_64-pc-linux-gnu"

%struct.write_midx_context = type { ptr, i64, i64, ptr, ptr, ptr, i32, ptr, i64, ptr, ptr, i8, i32, i32, i32, i32, ptr, ptr }
%struct.multi_pack_index = type { ptr, ptr, i64, ptr, ptr, i64, i32, i8, i8, i8, i32, i32, i32, i32, i32, ptr, i64, ptr, i64, ptr, ptr, ptr, ptr, i64, ptr, i64, ptr, i32, i32, ptr, ptr, ptr, [0 x i8] }

; Function Attrs: inlinehint nounwind uwtable
define internal i32 @default_swab32(i32 noundef %0) #4 {
  %2 = alloca i32, align 4
  store i32 %0, ptr %2, align 4, !tbaa !11
  %3 = load i32, ptr %2, align 4, !tbaa !11
  %4 = and i32 %3, -16777216
  %5 = lshr i32 %4, 24
  %6 = load i32, ptr %2, align 4, !tbaa !11
  %7 = and i32 %6, 16711680
  %8 = lshr i32 %7, 8
  %9 = or i32 %5, %8
  %10 = load i32, ptr %2, align 4, !tbaa !11
  %11 = and i32 %10, 65280
  %12 = shl i32 %11, 8
  %13 = or i32 %9, %12
  %14 = load i32, ptr %2, align 4, !tbaa !11
  %15 = and i32 %14, 255
  %16 = shl i32 %15, 24
  %17 = or i32 %13, %16
  ret i32 %17
}

; Function Attrs: inlinehint nounwind uwtable
define internal i32 @git_bswap32(i32 noundef %0) #4 {
  %2 = alloca i32, align 4
  %3 = alloca i32, align 4
  store i32 %0, ptr %2, align 4, !tbaa !11
  call void @llvm.lifetime.start.p0(i64 4, ptr %3) #11
  %4 = load i32, ptr %2, align 4, !tbaa !11
  %5 = call i1 @llvm.is.constant.i32(i32 %4)
  br i1 %5, label %6, label %9

6:                                                ; preds = %1
  %7 = load i32, ptr %2, align 4, !tbaa !11
  %8 = call i32 @default_swab32(i32 noundef %7)
  store i32 %8, ptr %3, align 4, !tbaa !11
  br label %12

9:                                                ; preds = %1
  %10 = load i32, ptr %2, align 4, !tbaa !11
  %11 = call i32 asm "bswap $0", "=r,0,~{dirflag},~{fpsr},~{flags}"(i32 %10) #15, !srcloc !206
  store i32 %11, ptr %3, align 4, !tbaa !11
  br label %12

12:                                               ; preds = %9, %6
  %13 = load i32, ptr %3, align 4, !tbaa !11
  call void @llvm.lifetime.end.p0(i64 4, ptr %3) #11
  ret i32 %13
}

; Function Attrs: inlinehint nounwind uwtable
define internal void @hashwrite_be32(ptr noundef %0, i32 noundef %1) #4 {
  %3 = alloca ptr, align 8
  %4 = alloca i32, align 4
  store ptr %0, ptr %3, align 8, !tbaa !15
  store i32 %1, ptr %4, align 4, !tbaa !11
  %5 = load i32, ptr %4, align 4, !tbaa !11
  %6 = call i32 @git_bswap32(i32 noundef %5)
  store i32 %6, ptr %4, align 4, !tbaa !11
  %7 = load ptr, ptr %3, align 8, !tbaa !15
  call void @hashwrite(ptr noundef %7, ptr noundef %4, i32 noundef 4)
  ret void
}

; Function Attrs: nounwind uwtable
define internal i32 @write_midx_revindex(ptr noundef %0, ptr noundef %1) #0 {
  %3 = alloca ptr, align 8
  %4 = alloca ptr, align 8
  %5 = alloca ptr, align 8
  %6 = alloca i32, align 4
  %7 = alloca i32, align 4
  store ptr %0, ptr %3, align 8, !tbaa !15
  store ptr %1, ptr %4, align 8, !tbaa !137
  call void @llvm.lifetime.start.p0(i64 8, ptr %5) #11
  %8 = load ptr, ptr %4, align 8, !tbaa !137
  store ptr %8, ptr %5, align 8, !tbaa !133
  call void @llvm.lifetime.start.p0(i64 4, ptr %6) #11
  call void @llvm.lifetime.start.p0(i64 4, ptr %7) #11
  %9 = load ptr, ptr %5, align 8, !tbaa !133
  %10 = getelementptr inbounds nuw %struct.write_midx_context, ptr %9, i32 0, i32 14
  %11 = load i32, ptr %10, align 4, !tbaa !27
  %12 = icmp ne i32 %11, 0
  br i1 %12, label %13, label %30

13:                                               ; preds = %2
  %14 = load ptr, ptr %5, align 8, !tbaa !133
  %15 = getelementptr inbounds nuw %struct.write_midx_context, ptr %14, i32 0, i32 4
  %16 = load ptr, ptr %15, align 8, !tbaa !49
  %17 = icmp ne ptr %16, null
  br i1 %17, label %18, label %30

18:                                               ; preds = %13
  %19 = load ptr, ptr %5, align 8, !tbaa !133
  %20 = getelementptr inbounds nuw %struct.write_midx_context, ptr %19, i32 0, i32 4
  %21 = load ptr, ptr %20, align 8, !tbaa !49
  %22 = getelementptr inbounds nuw %struct.multi_pack_index, ptr %21, i32 0, i32 11
  %23 = load i32, ptr %22, align 4, !tbaa !11
  %24 = load ptr, ptr %5, align 8, !tbaa !133
  %25 = getelementptr inbounds nuw %struct.write_midx_context, ptr %24, i32 0, i32 4
  %26 = load ptr, ptr %25, align 8, !tbaa !49
  %27 = getelementptr inbounds nuw %struct.multi_pack_index, ptr %26, i32 0, i32 27
  %28 = load i32, ptr %27, align 8, !tbaa !11
  %29 = add i32 %23, %28
  store i32 %29, ptr %7, align 4, !tbaa !11
  br label %31

30:                                               ; preds = %13, %2
  store i32 0, ptr %7, align 4, !tbaa !11
  br label %31

31:                                               ; preds = %30, %18
  store i32 0, ptr %6, align 4, !tbaa !11
  br label %32

32:                                               ; preds = %50, %31
  %33 = load i32, ptr %6, align 4, !tbaa !11
  %34 = zext i32 %33 to i64
  %35 = load ptr, ptr %5, align 8, !tbaa !133
  %36 = getelementptr inbounds nuw %struct.write_midx_context, ptr %35, i32 0, i32 8
  %37 = load i64, ptr %36, align 8, !tbaa !74
  %38 = icmp ult i64 %34, %37
  br i1 %38, label %39, label %53

39:                                               ; preds = %32
  %40 = load ptr, ptr %3, align 8, !tbaa !15
  %41 = load ptr, ptr %5, align 8, !tbaa !133
  %42 = getelementptr inbounds nuw %struct.write_midx_context, ptr %41, i32 0, i32 10
  %43 = load ptr, ptr %42, align 8, !tbaa !97
  %44 = load i32, ptr %6, align 4, !tbaa !11
  %45 = zext i32 %44 to i64
  %46 = getelementptr inbounds nuw i32, ptr %43, i64 %45
  %47 = load i32, ptr %46, align 4, !tbaa !11
  %48 = load i32, ptr %7, align 4, !tbaa !11
  %49 = add i32 %47, %48
  call void @hashwrite_be32(ptr noundef %40, i32 noundef %49)
  br label %50

50:                                               ; preds = %39
  %51 = load i32, ptr %6, align 4, !tbaa !11
  %52 = add i32 %51, 1
  store i32 %52, ptr %6, align 4, !tbaa !11
  br label %32, !llvm.loop !170

53:                                               ; preds = %32
  call void @llvm.lifetime.end.p0(i64 4, ptr %7) #11
  call void @llvm.lifetime.end.p0(i64 4, ptr %6) #11
  call void @llvm.lifetime.end.p0(i64 8, ptr %5) #11
  ret i32 0
}