; Function Attrs: nounwind uwtable
define internal noundef i32 @write_midx_revindex(ptr noundef %0, ptr noundef readonly captures(none) %1) #0 {
  %3 = alloca i32, align 4
  %4 = getelementptr inbounds nuw i8, ptr %1, i64 100
  %5 = load i32, ptr %4, align 4, !tbaa !18
  %.not = icmp eq i32 %5, 0
  br i1 %.not, label %15, label %6

6:                                                ; preds = %2
  %7 = getelementptr inbounds nuw i8, ptr %1, i64 32
  %8 = load ptr, ptr %7, align 8, !tbaa !41
  %.not14 = icmp eq ptr %8, null
  br i1 %.not14, label %15, label %9

9:                                                ; preds = %6
  %10 = getelementptr inbounds nuw i8, ptr %8, i64 60
  %11 = load i32, ptr %10, align 4, !tbaa !40
  %12 = getelementptr inbounds nuw i8, ptr %8, i64 176
  %13 = load i32, ptr %12, align 8, !tbaa !40
  %14 = add i32 %13, %11
  br label %15

15:                                               ; preds = %2, %6, %9
  %.0 = phi i32 [ %14, %9 ], [ 0, %6 ], [ 0, %2 ]
  %16 = getelementptr inbounds nuw i8, ptr %1, i64 64
  %17 = load i64, ptr %16, align 8, !tbaa !79
  %.not16 = icmp eq i64 %17, 0
  br i1 %.not16, label %._crit_edge, label %.lr.ph

.lr.ph:                                           ; preds = %15
  %18 = getelementptr inbounds nuw i8, ptr %1, i64 80
  br label %hashwrite_be32.exit

hashwrite_be32.exit:                              ; preds = %.lr.ph, %hashwrite_be32.exit
  %19 = phi i64 [ 0, %.lr.ph ], [ %26, %hashwrite_be32.exit ]
  %.01115 = phi i32 [ 0, %.lr.ph ], [ %25, %hashwrite_be32.exit ]
  %20 = load ptr, ptr %18, align 8, !tbaa !115
  %21 = getelementptr inbounds nuw i32, ptr %20, i64 %19
  %22 = load i32, ptr %21, align 4, !tbaa !40
  call void @llvm.lifetime.start.p0(i64 4, ptr nonnull %3)
  %23 = add i32 %22, %.0
  %24 = call i32 asm "bswap $0", "=r,0,~{dirflag},~{fpsr},~{flags}"(i32 %23) #22, !srcloc !117
  store i32 %24, ptr %3, align 4, !tbaa !40
  call void @hashwrite(ptr noundef %0, ptr noundef nonnull %3, i32 noundef 4) #19
  call void @llvm.lifetime.end.p0(i64 4, ptr nonnull %3)
  %25 = add i32 %.01115, 1
  %26 = zext i32 %25 to i64
  %27 = load i64, ptr %16, align 8, !tbaa !79
  %28 = icmp ugt i64 %27, %26
  br i1 %28, label %hashwrite_be32.exit, label %._crit_edge, !llvm.loop !214

._crit_edge:                                      ; preds = %hashwrite_be32.exit, %15
  ret i32 0
}